target datalayout = "e-m:e-p270:32:32-p271:32:32-p272:64:64-i64:64-i128:128-f80:128-n8:16:32:64-S128"
target triple = "x86_64-pc-linux-gnu"

%struct.FLAC__StreamMetadata_VorbisComment_Entry = type { i32, ptr }

; Function Attrs: inlinehint nounwind sspstrong uwtable
define internal ptr @safe_malloc_(i64 noundef %0) #9 {
  %2 = alloca i64, align 8
  store i64 %0, ptr %2, align 8, !tbaa !28
  %3 = load i64, ptr %2, align 8, !tbaa !28
  %4 = icmp ne i64 %3, 0
  br i1 %4, label %8, label %5

5:                                                ; preds = %1
  %6 = load i64, ptr %2, align 8, !tbaa !28
  %7 = add i64 %6, 1
  store i64 %7, ptr %2, align 8, !tbaa !28
  br label %8

8:                                                ; preds = %5, %1
  %9 = load i64, ptr %2, align 8, !tbaa !28
  %10 = call noalias ptr @malloc(i64 noundef %9) #16
  ret ptr %10
}

; Function Attrs: alwaysinline nounwind
define internal ptr @memcpy.inline(ptr noalias nonnull %0, ptr noalias nonnull %1, i64 %2) #5 {
  %4 = alloca ptr, align 8
  %5 = alloca ptr, align 8
  %6 = alloca i64, align 8
  store ptr %0, ptr %4, align 8, !tbaa !27
  store ptr %1, ptr %5, align 8, !tbaa !27
  store i64 %2, ptr %6, align 8, !tbaa !28
  %7 = load ptr, ptr %4, align 8, !tbaa !27
  %8 = load ptr, ptr %5, align 8, !tbaa !27
  %9 = load i64, ptr %6, align 8, !tbaa !28
  %10 = load ptr, ptr %4, align 8, !tbaa !27
  %11 = call i64 @llvm.objectsize.i64.p0(ptr %10, i1 false, i1 true, i1 false)
  %12 = call ptr @__memcpy_chk(ptr noundef %7, ptr noundef %8, i64 noundef %9, i64 noundef %11) #12
  ret ptr %12
}

; Function Attrs: inlinehint nounwind sspstrong uwtable
define internal ptr @safe_malloc_add_4op_(i64 noundef %0, i64 noundef %1, i64 noundef %2, i64 noundef %3) #9 {
  %5 = alloca ptr, align 8
  %6 = alloca i64, align 8
  %7 = alloca i64, align 8
  %8 = alloca i64, align 8
  %9 = alloca i64, align 8
  store i64 %0, ptr %6, align 8, !tbaa !28
  store i64 %1, ptr %7, align 8, !tbaa !28
  store i64 %2, ptr %8, align 8, !tbaa !28
  store i64 %3, ptr %9, align 8, !tbaa !28
  %10 = load i64, ptr %6, align 8, !tbaa !28
  %11 = load i64, ptr %7, align 8, !tbaa !28
  %12 = add i64 %11, %10
  store i64 %12, ptr %7, align 8, !tbaa !28
  %13 = load i64, ptr %7, align 8, !tbaa !28
  %14 = load i64, ptr %6, align 8, !tbaa !28
  %15 = icmp ult i64 %13, %14
  br i1 %15, label %16, label %17

16:                                               ; preds = %4
  store ptr null, ptr %5, align 8
  br label %36

17:                                               ; preds = %4
  %18 = load i64, ptr %7, align 8, !tbaa !28
  %19 = load i64, ptr %8, align 8, !tbaa !28
  %20 = add i64 %19, %18
  store i64 %20, ptr %8, align 8, !tbaa !28
  %21 = load i64, ptr %8, align 8, !tbaa !28
  %22 = load i64, ptr %7, align 8, !tbaa !28
  %23 = icmp ult i64 %21, %22
  br i1 %23, label %24, label %25

24:                                               ; preds = %17
  store ptr null, ptr %5, align 8
  br label %36

25:                                               ; preds = %17
  %26 = load i64, ptr %8, align 8, !tbaa !28
  %27 = load i64, ptr %9, align 8, !tbaa !28
  %28 = add i64 %27, %26
  store i64 %28, ptr %9, align 8, !tbaa !28
  %29 = load i64, ptr %9, align 8, !tbaa !28
  %30 = load i64, ptr %8, align 8, !tbaa !28
  %31 = icmp ult i64 %29, %30
  br i1 %31, label %32, label %33

32:                                               ; preds = %25
  store ptr null, ptr %5, align 8
  br label %36

33:                                               ; preds = %25
  %34 = load i64, ptr %9, align 8, !tbaa !28
  %35 = call ptr @safe_malloc_(i64 noundef %34)
  store ptr %35, ptr %5, align 8
  br label %36

36:                                               ; preds = %33, %32, %24, %16
  %37 = load ptr, ptr %5, align 8
  ret ptr %37
}

; Function Attrs: nounwind sspstrong uwtable
define i32 @FLAC__metadata_object_vorbiscomment_entry_from_name_value_pair(ptr noundef %0, ptr noundef %1, ptr noundef %2) #0 {
  %4 = alloca i32, align 4
  %5 = alloca ptr, align 8
  %6 = alloca ptr, align 8
  %7 = alloca ptr, align 8
  %8 = alloca i64, align 8
  %9 = alloca i64, align 8
  %10 = alloca i32, align 4
  store ptr %0, ptr %5, align 8, !tbaa !27
  store ptr %1, ptr %6, align 8, !tbaa !14
  store ptr %2, ptr %7, align 8, !tbaa !14
  %11 = load ptr, ptr %6, align 8, !tbaa !14
  %12 = call i32 @FLAC__format_vorbiscomment_entry_name_is_legal(ptr noundef %11)
  %13 = icmp ne i32 %12, 0
  br i1 %13, label %15, label %14

14:                                               ; preds = %3
  store i32 0, ptr %4, align 4
  br label %71

15:                                               ; preds = %3
  %16 = load ptr, ptr %7, align 8, !tbaa !14
  %17 = call i32 @FLAC__format_vorbiscomment_entry_value_is_legal(ptr noundef %16, i32 noundef -1)
  %18 = icmp ne i32 %17, 0
  br i1 %18, label %20, label %19

19:                                               ; preds = %15
  store i32 0, ptr %4, align 4
  br label %71

20:                                               ; preds = %15
  call void @llvm.lifetime.start.p0(i64 8, ptr %8) #12
  %21 = load ptr, ptr %6, align 8, !tbaa !14
  %22 = call i64 @strlen(ptr noundef %21) #14
  store i64 %22, ptr %8, align 8, !tbaa !28
  call void @llvm.lifetime.start.p0(i64 8, ptr %9) #12
  %23 = load ptr, ptr %7, align 8, !tbaa !14
  %24 = call i64 @strlen(ptr noundef %23) #14
  store i64 %24, ptr %9, align 8, !tbaa !28
  %25 = load i64, ptr %8, align 8, !tbaa !28
  %26 = add i64 %25, 1
  %27 = load i64, ptr %9, align 8, !tbaa !28
  %28 = add i64 %26, %27
  %29 = trunc i64 %28 to i32
  %30 = load ptr, ptr %5, align 8, !tbaa !27
  %31 = getelementptr inbounds nuw %struct.FLAC__StreamMetadata_VorbisComment_Entry, ptr %30, i32 0, i32 0
  store i32 %29, ptr %31, align 8, !tbaa !19
  %32 = load i64, ptr %8, align 8, !tbaa !28
  %33 = load i64, ptr %9, align 8, !tbaa !28
  %34 = call ptr @safe_malloc_add_4op_(i64 noundef %32, i64 noundef 1, i64 noundef %33, i64 noundef 1)
  %35 = load ptr, ptr %5, align 8, !tbaa !27
  %36 = getelementptr inbounds nuw %struct.FLAC__StreamMetadata_VorbisComment_Entry, ptr %35, i32 0, i32 1
  store ptr %34, ptr %36, align 8, !tbaa !29
  %37 = icmp eq ptr %34, null
  br i1 %37, label %38, label %39

38:                                               ; preds = %20
  store i32 0, ptr %4, align 4
  store i32 1, ptr %10, align 4
  br label %68

39:                                               ; preds = %20
  %40 = load ptr, ptr %5, align 8, !tbaa !27
  %41 = getelementptr inbounds nuw %struct.FLAC__StreamMetadata_VorbisComment_Entry, ptr %40, i32 0, i32 1
  %42 = load ptr, ptr %41, align 8, !tbaa !29
  %43 = load ptr, ptr %6, align 8, !tbaa !14
  %44 = load i64, ptr %8, align 8, !tbaa !28
  %45 = call ptr @memcpy.inline(ptr noundef %42, ptr noundef %43, i64 noundef %44) #12
  %46 = load ptr, ptr %5, align 8, !tbaa !27
  %47 = getelementptr inbounds nuw %struct.FLAC__StreamMetadata_VorbisComment_Entry, ptr %46, i32 0, i32 1
  %48 = load ptr, ptr %47, align 8, !tbaa !29
  %49 = load i64, ptr %8, align 8, !tbaa !28
  %50 = getelementptr inbounds nuw i8, ptr %48, i64 %49
  store i8 61, ptr %50, align 1, !tbaa !16
  %51 = load ptr, ptr %5, align 8, !tbaa !27
  %52 = getelementptr inbounds nuw %struct.FLAC__StreamMetadata_VorbisComment_Entry, ptr %51, i32 0, i32 1
  %53 = load ptr, ptr %52, align 8, !tbaa !29
  %54 = load i64, ptr %8, align 8, !tbaa !28
  %55 = getelementptr inbounds nuw i8, ptr %53, i64 %54
  %56 = getelementptr inbounds i8, ptr %55, i64 1
  %57 = load ptr, ptr %7, align 8, !tbaa !14
  %58 = load i64, ptr %9, align 8, !tbaa !28
  %59 = call ptr @memcpy.inline(ptr noundef %56, ptr noundef %57, i64 noundef %58) #12
  %60 = load ptr, ptr %5, align 8, !tbaa !27
  %61 = getelementptr inbounds nuw %struct.FLAC__StreamMetadata_VorbisComment_Entry, ptr %60, i32 0, i32 1
  %62 = load ptr, ptr %61, align 8, !tbaa !29
  %63 = load ptr, ptr %5, align 8, !tbaa !27
  %64 = getelementptr inbounds nuw %struct.FLAC__StreamMetadata_VorbisComment_Entry, ptr %63, i32 0, i32 0
  %65 = load i32, ptr %64, align 8, !tbaa !19
  %66 = zext i32 %65 to i64
  %67 = getelementptr inbounds nuw i8, ptr %62, i64 %66
  store i8 0, ptr %67, align 1, !tbaa !16
  store i32 0, ptr %10, align 4
  br label %68

68:                                               ; preds = %39, %38
  call void @llvm.lifetime.end.p0(i64 8, ptr %9) #12
  call void @llvm.lifetime.end.p0(i64 8, ptr %8) #12
  %69 = load i32, ptr %10, align 4
  switch i32 %69, label %73 [
    i32 0, label %70
    i32 1, label %71
  ]

70:                                               ; preds = %68
  store i32 1, ptr %4, align 4
  br label %71

71:                                               ; preds = %70, %68, %19, %14
  %72 = load i32, ptr %4, align 4
  ret i32 %72

73:                                               ; preds = %68
  unreachable
}