; Function Attrs: nounwind sspstrong uwtable
define range(i32 0, 2) i32 @FLAC__metadata_object_vorbiscomment_entry_from_name_value_pair(ptr noundef writeonly captures(none) %0, ptr noundef %1, ptr noundef %2) local_unnamed_addr #0 {
  %4 = tail call i32 @FLAC__format_vorbiscomment_entry_name_is_legal(ptr noundef %1) #31
  %.not = icmp eq i32 %4, 0
  br i1 %.not, label %.thread, label %5

5:                                                ; preds = %3
  %6 = tail call i32 @FLAC__format_vorbiscomment_entry_value_is_legal(ptr noundef %2, i32 noundef -1) #31
  %.not24 = icmp eq i32 %6, 0
  br i1 %.not24, label %.thread, label %7

7:                                                ; preds = %5
  %8 = tail call i64 @strlen(ptr noundef nonnull dereferenceable(1) %1) #29
  %9 = tail call i64 @strlen(ptr noundef nonnull dereferenceable(1) %2) #29
  %10 = add i64 %8, 1
  %11 = add i64 %10, %9
  %12 = trunc i64 %11 to i32
  store i32 %12, ptr %0, align 8, !tbaa !15
  %13 = icmp eq i64 %8, -1
  br i1 %13, label %safe_malloc_add_4op_.exit.thread, label %14

14:                                               ; preds = %7
  %15 = icmp ule i64 %11, %8
  %16 = icmp eq i64 %11, -1
  %or.cond.i = or i1 %15, %16
  br i1 %or.cond.i, label %safe_malloc_add_4op_.exit.thread, label %safe_malloc_add_4op_.exit

safe_malloc_add_4op_.exit.thread:                 ; preds = %7, %14
  %17 = getelementptr inbounds nuw i8, ptr %0, i64 8
  store ptr null, ptr %17, align 8, !tbaa !17
  br label %.thread

safe_malloc_add_4op_.exit:                        ; preds = %14
  %18 = add nuw i64 %11, 1
  %19 = tail call noalias noundef ptr @malloc(i64 noundef %18) #30
  %20 = getelementptr inbounds nuw i8, ptr %0, i64 8
  store ptr %19, ptr %20, align 8, !tbaa !17
  %21 = icmp eq ptr %19, null
  br i1 %21, label %.thread, label %22

22:                                               ; preds = %safe_malloc_add_4op_.exit
  tail call void @llvm.memcpy.p0.p0.i64(ptr noundef nonnull align 1 %19, ptr noundef nonnull align 1 %1, i64 noundef %8, i1 noundef false) #31
  %23 = getelementptr inbounds nuw i8, ptr %19, i64 %8
  store i8 61, ptr %23, align 1, !tbaa !13
  %24 = getelementptr inbounds nuw i8, ptr %23, i64 1
  tail call void @llvm.memcpy.p0.p0.i64(ptr noundef nonnull align 1 %24, ptr noundef nonnull align 1 %2, i64 noundef %9, i1 noundef false) #31
  %25 = and i64 %11, 4294967295
  %26 = getelementptr inbounds nuw i8, ptr %19, i64 %25
  store i8 0, ptr %26, align 1, !tbaa !13
  br label %.thread

.thread:                                          ; preds = %safe_malloc_add_4op_.exit, %safe_malloc_add_4op_.exit.thread, %22, %5, %3
  %.022 = phi i32 [ 0, %3 ], [ 0, %5 ], [ 1, %22 ], [ 0, %safe_malloc_add_4op_.exit.thread ], [ 0, %safe_malloc_add_4op_.exit ]
  ret i32 %.022
}